; Function Attrs: mustprogress nofree norecurse nosync nounwind willreturn memory(read, inaccessiblemem: none) uwtable
define noundef ptr @_ZNK5draco10PointCloud27GetNamedAttributeByUniqueIdENS_17GeometryAttribute4TypeEj(ptr nocapture noundef nonnull readonly align 8 dereferenceable(164) %0, i32 noundef %1, i32 noundef %2) local_unnamed_addr #5 align 2 {
  %4 = getelementptr inbounds i8, ptr %0, i64 40
  %5 = sext i32 %1 to i64
  %6 = getelementptr inbounds [5 x %"class.std::vector.2"], ptr %4, i64 0, i64 %5
  %7 = getelementptr inbounds i8, ptr %6, i64 8
  %8 = load ptr, ptr %7, align 8
  %9 = load ptr, ptr %6, align 8
  %.not = icmp eq ptr %8, %9
  br i1 %.not, label %._crit_edge, label %.lr.ph

.lr.ph:                                           ; preds = %3
  %10 = ptrtoint ptr %8 to i64
  %11 = ptrtoint ptr %9 to i64
  %12 = sub i64 %10, %11
  %13 = ashr exact i64 %12, 2
  %14 = getelementptr inbounds i8, ptr %0, i64 16
  %15 = load ptr, ptr %14, align 8
  %umax = tail call i64 @llvm.umax.i64(i64 %13, i64 1)
  br label %18

16:                                               ; preds = %18
  %17 = add nuw i64 %.010, 1
  %exitcond.not = icmp eq i64 %17, %umax
  br i1 %exitcond.not, label %._crit_edge, label %18, !llvm.loop !4

18:                                               ; preds = %.lr.ph, %16
  %.010 = phi i64 [ 0, %.lr.ph ], [ %17, %16 ]
  %19 = getelementptr inbounds i32, ptr %9, i64 %.010
  %20 = load i32, ptr %19, align 4
  %21 = sext i32 %20 to i64
  %22 = getelementptr inbounds %"class.std::unique_ptr.7", ptr %15, i64 %21
  %23 = load ptr, ptr %22, align 8
  %24 = getelementptr inbounds i8, ptr %23, i64 60
  %25 = load i32, ptr %24, align 4
  %26 = icmp eq i32 %25, %2
  br i1 %26, label %._crit_edge, label %16

._crit_edge:                                      ; preds = %16, %18, %3
  %.09 = phi ptr [ null, %3 ], [ %23, %18 ], [ null, %16 ]
  ret ptr %.09
}